; Function Attrs: mustprogress nofree norecurse nounwind willreturn uwtable
define void @_ZNK5arrow2io19BufferedInputStream3rawEv(ptr noalias nocapture writeonly sret(%"class.std::shared_ptr.22") align 8 %agg.result, ptr nocapture noundef nonnull readonly align 8 dereferenceable(32) %this) local_unnamed_addr #10 align 2 personality ptr @__gxx_personality_v0 {
entry:
  %impl_ = getelementptr inbounds i8, ptr %this, i64 24
  %0 = load ptr, ptr %impl_, align 8
  tail call void @llvm.experimental.noalias.scope.decl(metadata !141)
  %raw_.i = getelementptr inbounds i8, ptr %0, i64 104
  %1 = load <2 x ptr>, ptr %raw_.i, align 8, !noalias !141
  store <2 x ptr> %1, ptr %agg.result, align 8, !alias.scope !141
  %2 = extractelement <2 x ptr> %1, i64 1
  %cmp.not.i.i.i.i = icmp eq ptr %2, null
  br i1 %cmp.not.i.i.i.i, label %_ZNK5arrow2io19BufferedInputStream4Impl3rawEv.exit, label %if.then.i.i.i.i

if.then.i.i.i.i:                                  ; preds = %entry
  %_M_use_count.i.i.i.i.i = getelementptr inbounds i8, ptr %2, i64 8
  %3 = load i8, ptr @__libc_single_threaded, align 1, !noalias !141
  %tobool.i.i.not.i.i.i.i.i = icmp eq i8 %3, 0
  br i1 %tobool.i.i.not.i.i.i.i.i, label %if.else.i.i.i.i.i.i, label %if.then.i.i.i.i.i.i

if.then.i.i.i.i.i.i:                              ; preds = %if.then.i.i.i.i
  %4 = load i32, ptr %_M_use_count.i.i.i.i.i, align 4, !noalias !141
  %add.i.i.i.i.i.i = add nsw i32 %4, 1
  store i32 %add.i.i.i.i.i.i, ptr %_M_use_count.i.i.i.i.i, align 4, !noalias !141
  br label %_ZNK5arrow2io19BufferedInputStream4Impl3rawEv.exit

if.else.i.i.i.i.i.i:                              ; preds = %if.then.i.i.i.i
  %5 = atomicrmw volatile add ptr %_M_use_count.i.i.i.i.i, i32 1 acq_rel, align 4, !noalias !141
  br label %_ZNK5arrow2io19BufferedInputStream4Impl3rawEv.exit

_ZNK5arrow2io19BufferedInputStream4Impl3rawEv.exit: ; preds = %entry, %if.then.i.i.i.i.i.i, %if.else.i.i.i.i.i.i
  ret void
}